target datalayout = "e-m:e-p270:32:32-p271:32:32-p272:64:64-i64:64-i128:128-f80:128-n8:16:32:64-S128"
target triple = "x86_64-pc-linux-gnu"

%struct._object = type { %union.anon.41, ptr }
%union.anon.41 = type { i64 }
%struct.PyASCIIObject = type { %struct._object, i64, i64, %struct.anon.46 }
%struct.anon.46 = type { i16, i16 }
%struct._PyUnicodeWriter = type { ptr, ptr, i32, i32, i64, i64, i64, i32, i8, i8 }
%struct.GroupGenerator = type { ptr, i8, i64 }

; Function Attrs: nounwind uwtable
define internal i64 @GroupGenerator_next(ptr noundef %0) #0 {
  %2 = alloca i64, align 8
  %3 = alloca ptr, align 8
  %4 = alloca i8, align 1
  store ptr %0, ptr %3, align 8, !tbaa !180
  %5 = load ptr, ptr %3, align 8, !tbaa !180
  %6 = getelementptr inbounds nuw %struct.GroupGenerator, ptr %5, i32 0, i32 0
  %7 = load ptr, ptr %6, align 8, !tbaa !389
  %8 = load ptr, ptr %3, align 8, !tbaa !180
  %9 = getelementptr inbounds nuw %struct.GroupGenerator, ptr %8, i32 0, i32 2
  %10 = load i64, ptr %9, align 8, !tbaa !391
  %11 = getelementptr i8, ptr %7, i64 %10
  %12 = load i8, ptr %11, align 1, !tbaa !191
  %13 = sext i8 %12 to i32
  switch i32 %13, label %20 [
    i32 0, label %14
    i32 127, label %19
  ]

14:                                               ; preds = %1
  %15 = load ptr, ptr %3, align 8, !tbaa !180
  %16 = getelementptr inbounds nuw %struct.GroupGenerator, ptr %15, i32 0, i32 1
  %17 = load i8, ptr %16, align 8, !tbaa !392
  %18 = sext i8 %17 to i64
  store i64 %18, ptr %2, align 8
  br label %38

19:                                               ; preds = %1
  store i64 0, ptr %2, align 8
  br label %38

20:                                               ; preds = %1
  call void @llvm.lifetime.start.p0(i64 1, ptr %4) #12
  %21 = load ptr, ptr %3, align 8, !tbaa !180
  %22 = getelementptr inbounds nuw %struct.GroupGenerator, ptr %21, i32 0, i32 0
  %23 = load ptr, ptr %22, align 8, !tbaa !389
  %24 = load ptr, ptr %3, align 8, !tbaa !180
  %25 = getelementptr inbounds nuw %struct.GroupGenerator, ptr %24, i32 0, i32 2
  %26 = load i64, ptr %25, align 8, !tbaa !391
  %27 = getelementptr i8, ptr %23, i64 %26
  %28 = load i8, ptr %27, align 1, !tbaa !191
  store i8 %28, ptr %4, align 1, !tbaa !191
  %29 = load i8, ptr %4, align 1, !tbaa !191
  %30 = load ptr, ptr %3, align 8, !tbaa !180
  %31 = getelementptr inbounds nuw %struct.GroupGenerator, ptr %30, i32 0, i32 1
  store i8 %29, ptr %31, align 8, !tbaa !392
  %32 = load ptr, ptr %3, align 8, !tbaa !180
  %33 = getelementptr inbounds nuw %struct.GroupGenerator, ptr %32, i32 0, i32 2
  %34 = load i64, ptr %33, align 8, !tbaa !391
  %35 = add i64 %34, 1
  store i64 %35, ptr %33, align 8, !tbaa !391
  %36 = load i8, ptr %4, align 1, !tbaa !191
  %37 = sext i8 %36 to i64
  store i64 %37, ptr %2, align 8
  call void @llvm.lifetime.end.p0(i64 1, ptr %4) #12
  br label %38

38:                                               ; preds = %20, %19, %14
  %39 = load i64, ptr %2, align 8
  ret i64 %39
}

; Function Attrs: inlinehint nounwind uwtable
define internal i64 @PyUnicode_GET_LENGTH(ptr noundef %0) #2 {
  %2 = alloca ptr, align 8
  store ptr %0, ptr %2, align 8, !tbaa !4
  %3 = load ptr, ptr %2, align 8, !tbaa !4
  %4 = getelementptr inbounds nuw %struct.PyASCIIObject, ptr %3, i32 0, i32 1
  %5 = load i64, ptr %4, align 8, !tbaa !194
  ret i64 %5
}

; Function Attrs: nounwind uwtable
define internal void @GroupGenerator_init(ptr noundef %0, ptr noundef %1) #0 {
  %3 = alloca ptr, align 8
  %4 = alloca ptr, align 8
  store ptr %0, ptr %3, align 8, !tbaa !180
  store ptr %1, ptr %4, align 8, !tbaa !189
  %5 = load ptr, ptr %4, align 8, !tbaa !189
  %6 = load ptr, ptr %3, align 8, !tbaa !180
  %7 = getelementptr inbounds nuw %struct.GroupGenerator, ptr %6, i32 0, i32 0
  store ptr %5, ptr %7, align 8, !tbaa !389
  %8 = load ptr, ptr %3, align 8, !tbaa !180
  %9 = getelementptr inbounds nuw %struct.GroupGenerator, ptr %8, i32 0, i32 2
  store i64 0, ptr %9, align 8, !tbaa !391
  %10 = load ptr, ptr %3, align 8, !tbaa !180
  %11 = getelementptr inbounds nuw %struct.GroupGenerator, ptr %10, i32 0, i32 1
  store i8 0, ptr %11, align 8, !tbaa !392
  ret void
}

; Function Attrs: nounwind uwtable
define hidden i64 @_PyUnicode_InsertThousandsGrouping(ptr noundef %0, i64 noundef %1, ptr noundef %2, i64 noundef %3, i64 noundef %4, i64 noundef %5, ptr noundef %6, ptr noundef %7, ptr noundef %8) #0 {
  %10 = alloca ptr, align 8
  %11 = alloca i64, align 8
  %12 = alloca ptr, align 8
  %13 = alloca i64, align 8
  %14 = alloca i64, align 8
  %15 = alloca i64, align 8
  %16 = alloca ptr, align 8
  %17 = alloca ptr, align 8
  %18 = alloca ptr, align 8
  %19 = alloca i64, align 8
  %20 = alloca i64, align 8
  %21 = alloca i32, align 4
  %22 = alloca i32, align 4
  %23 = alloca i64, align 8
  %24 = alloca i64, align 8
  %25 = alloca i64, align 8
  %26 = alloca i64, align 8
  %27 = alloca i64, align 8
  %28 = alloca %struct.GroupGenerator, align 8
  %29 = alloca i64, align 8
  store ptr %0, ptr %10, align 8, !tbaa !180
  store i64 %1, ptr %11, align 8, !tbaa !185
  store ptr %2, ptr %12, align 8, !tbaa !4
  store i64 %3, ptr %13, align 8, !tbaa !185
  store i64 %4, ptr %14, align 8, !tbaa !185
  store i64 %5, ptr %15, align 8, !tbaa !185
  store ptr %6, ptr %16, align 8, !tbaa !189
  store ptr %7, ptr %17, align 8, !tbaa !4
  store ptr %8, ptr %18, align 8, !tbaa !210
  %30 = load i64, ptr %15, align 8, !tbaa !185
  %31 = icmp sgt i64 0, %30
  br i1 %31, label %32, label %33

32:                                               ; preds = %9
  br label %35

33:                                               ; preds = %9
  %34 = load i64, ptr %15, align 8, !tbaa !185
  br label %35

35:                                               ; preds = %33, %32
  %36 = phi i64 [ 0, %32 ], [ %34, %33 ]
  store i64 %36, ptr %15, align 8, !tbaa !185
  %37 = load ptr, ptr %10, align 8, !tbaa !180
  %38 = icmp ne ptr %37, null
  br i1 %38, label %39, label %40

39:                                               ; preds = %35
  br label %41

40:                                               ; preds = %35
  br label %41

41:                                               ; preds = %40, %39
  call void @llvm.lifetime.start.p0(i64 8, ptr %19) #12
  store i64 0, ptr %19, align 8, !tbaa !185
  call void @llvm.lifetime.start.p0(i64 8, ptr %20) #12
  call void @llvm.lifetime.start.p0(i64 4, ptr %21) #12
  store i32 0, ptr %21, align 4, !tbaa !190
  call void @llvm.lifetime.start.p0(i64 4, ptr %22) #12
  store i32 0, ptr %22, align 4, !tbaa !190
  call void @llvm.lifetime.start.p0(i64 8, ptr %23) #12
  call void @llvm.lifetime.start.p0(i64 8, ptr %24) #12
  call void @llvm.lifetime.start.p0(i64 8, ptr %25) #12
  call void @llvm.lifetime.start.p0(i64 8, ptr %26) #12
  call void @llvm.lifetime.start.p0(i64 8, ptr %27) #12
  %42 = load i64, ptr %14, align 8, !tbaa !185
  store i64 %42, ptr %27, align 8, !tbaa !185
  call void @llvm.lifetime.start.p0(i64 24, ptr %28) #12
  %43 = load ptr, ptr %16, align 8, !tbaa !189
  call void @GroupGenerator_init(ptr noundef %28, ptr noundef %43)
  call void @llvm.lifetime.start.p0(i64 8, ptr %29) #12
  %44 = load ptr, ptr %17, align 8, !tbaa !4
  %45 = call i64 @PyUnicode_GET_LENGTH(ptr noundef %44)
  store i64 %45, ptr %29, align 8, !tbaa !185
  %46 = load i64, ptr %13, align 8, !tbaa !185
  %47 = load i64, ptr %14, align 8, !tbaa !185
  %48 = add i64 %46, %47
  store i64 %48, ptr %24, align 8, !tbaa !185
  %49 = load ptr, ptr %10, align 8, !tbaa !180
  %50 = icmp ne ptr %49, null
  br i1 %50, label %51, label %57

51:                                               ; preds = %41
  %52 = load ptr, ptr %10, align 8, !tbaa !180
  %53 = getelementptr inbounds nuw %struct._PyUnicodeWriter, ptr %52, i32 0, i32 5
  %54 = load i64, ptr %53, align 8, !tbaa !235
  %55 = load i64, ptr %11, align 8, !tbaa !185
  %56 = add i64 %54, %55
  store i64 %56, ptr %23, align 8, !tbaa !185
  br label %59

57:                                               ; preds = %41
  %58 = load i64, ptr %11, align 8, !tbaa !185
  store i64 %58, ptr %23, align 8, !tbaa !185
  br label %59

59:                                               ; preds = %57, %51
  %60 = load ptr, ptr %10, align 8, !tbaa !180
  %61 = icmp ne ptr %60, null
  br i1 %61, label %64, label %62

62:                                               ; preds = %59
  %63 = load ptr, ptr %18, align 8, !tbaa !210
  store i32 127, ptr %63, align 4, !tbaa !190
  br label %64

64:                                               ; preds = %62, %59
  br label %65

65:                                               ; preds = %194, %64
  %66 = call i64 @GroupGenerator_next(ptr noundef %28)
  store i64 %66, ptr %25, align 8, !tbaa !185
  %67 = icmp sgt i64 %66, 0
  br i1 %67, label %68, label %198

68:                                               ; preds = %65
  %69 = load i64, ptr %25, align 8, !tbaa !185
  %70 = load i64, ptr %27, align 8, !tbaa !185
  %71 = load i64, ptr %15, align 8, !tbaa !185
  %72 = icmp sgt i64 %70, %71
  br i1 %72, label %73, label %75

73:                                               ; preds = %68
  %74 = load i64, ptr %27, align 8, !tbaa !185
  br label %77

75:                                               ; preds = %68
  %76 = load i64, ptr %15, align 8, !tbaa !185
  br label %77

77:                                               ; preds = %75, %73
  %78 = phi i64 [ %74, %73 ], [ %76, %75 ]
  %79 = icmp sgt i64 %78, 1
  br i1 %79, label %80, label %90

80:                                               ; preds = %77
  %81 = load i64, ptr %27, align 8, !tbaa !185
  %82 = load i64, ptr %15, align 8, !tbaa !185
  %83 = icmp sgt i64 %81, %82
  br i1 %83, label %84, label %86

84:                                               ; preds = %80
  %85 = load i64, ptr %27, align 8, !tbaa !185
  br label %88

86:                                               ; preds = %80
  %87 = load i64, ptr %15, align 8, !tbaa !185
  br label %88

88:                                               ; preds = %86, %84
  %89 = phi i64 [ %85, %84 ], [ %87, %86 ]
  br label %91

90:                                               ; preds = %77
  br label %91

91:                                               ; preds = %90, %88
  %92 = phi i64 [ %89, %88 ], [ 1, %90 ]
  %93 = icmp sgt i64 %69, %92
  br i1 %93, label %94, label %118

94:                                               ; preds = %91
  %95 = load i64, ptr %27, align 8, !tbaa !185
  %96 = load i64, ptr %15, align 8, !tbaa !185
  %97 = icmp sgt i64 %95, %96
  br i1 %97, label %98, label %100

98:                                               ; preds = %94
  %99 = load i64, ptr %27, align 8, !tbaa !185
  br label %102

100:                                              ; preds = %94
  %101 = load i64, ptr %15, align 8, !tbaa !185
  br label %102

102:                                              ; preds = %100, %98
  %103 = phi i64 [ %99, %98 ], [ %101, %100 ]
  %104 = icmp sgt i64 %103, 1
  br i1 %104, label %105, label %115

105:                                              ; preds = %102
  %106 = load i64, ptr %27, align 8, !tbaa !185
  %107 = load i64, ptr %15, align 8, !tbaa !185
  %108 = icmp sgt i64 %106, %107
  br i1 %108, label %109, label %111

109:                                              ; preds = %105
  %110 = load i64, ptr %27, align 8, !tbaa !185
  br label %113

111:                                              ; preds = %105
  %112 = load i64, ptr %15, align 8, !tbaa !185
  br label %113

113:                                              ; preds = %111, %109
  %114 = phi i64 [ %110, %109 ], [ %112, %111 ]
  br label %116

115:                                              ; preds = %102
  br label %116

116:                                              ; preds = %115, %113
  %117 = phi i64 [ %114, %113 ], [ 1, %115 ]
  br label %120

118:                                              ; preds = %91
  %119 = load i64, ptr %25, align 8, !tbaa !185
  br label %120

120:                                              ; preds = %118, %116
  %121 = phi i64 [ %117, %116 ], [ %119, %118 ]
  store i64 %121, ptr %25, align 8, !tbaa !185
  %122 = load i64, ptr %25, align 8, !tbaa !185
  %123 = load i64, ptr %27, align 8, !tbaa !185
  %124 = sub i64 %122, %123
  %125 = icmp sgt i64 0, %124
  br i1 %125, label %126, label %127

126:                                              ; preds = %120
  br label %131

127:                                              ; preds = %120
  %128 = load i64, ptr %25, align 8, !tbaa !185
  %129 = load i64, ptr %27, align 8, !tbaa !185
  %130 = sub i64 %128, %129
  br label %131

131:                                              ; preds = %127, %126
  %132 = phi i64 [ 0, %126 ], [ %130, %127 ]
  store i64 %132, ptr %20, align 8, !tbaa !185
  %133 = load i64, ptr %27, align 8, !tbaa !185
  %134 = load i64, ptr %25, align 8, !tbaa !185
  %135 = icmp sgt i64 %133, %134
  br i1 %135, label %136, label %138

136:                                              ; preds = %131
  %137 = load i64, ptr %25, align 8, !tbaa !185
  br label %140

138:                                              ; preds = %131
  %139 = load i64, ptr %27, align 8, !tbaa !185
  br label %140

140:                                              ; preds = %138, %136
  %141 = phi i64 [ %137, %136 ], [ %139, %138 ]
  %142 = icmp sgt i64 0, %141
  br i1 %142, label %143, label %144

143:                                              ; preds = %140
  br label %154

144:                                              ; preds = %140
  %145 = load i64, ptr %27, align 8, !tbaa !185
  %146 = load i64, ptr %25, align 8, !tbaa !185
  %147 = icmp sgt i64 %145, %146
  br i1 %147, label %148, label %150

148:                                              ; preds = %144
  %149 = load i64, ptr %25, align 8, !tbaa !185
  br label %152

150:                                              ; preds = %144
  %151 = load i64, ptr %27, align 8, !tbaa !185
  br label %152

152:                                              ; preds = %150, %148
  %153 = phi i64 [ %149, %148 ], [ %151, %150 ]
  br label %154

154:                                              ; preds = %152, %143
  %155 = phi i64 [ 0, %143 ], [ %153, %152 ]
  store i64 %155, ptr %26, align 8, !tbaa !185
  %156 = load i32, ptr %22, align 4, !tbaa !190
  %157 = icmp ne i32 %156, 0
  br i1 %157, label %158, label %160

158:                                              ; preds = %154
  %159 = load i64, ptr %29, align 8, !tbaa !185
  br label %161

160:                                              ; preds = %154
  br label %161

161:                                              ; preds = %160, %158
  %162 = phi i64 [ %159, %158 ], [ 0, %160 ]
  %163 = load i64, ptr %20, align 8, !tbaa !185
  %164 = add i64 %162, %163
  %165 = load i64, ptr %26, align 8, !tbaa !185
  %166 = add i64 %164, %165
  %167 = load i64, ptr %19, align 8, !tbaa !185
  %168 = add i64 %167, %166
  store i64 %168, ptr %19, align 8, !tbaa !185
  %169 = load ptr, ptr %10, align 8, !tbaa !180
  %170 = load ptr, ptr %12, align 8, !tbaa !4
  %171 = load i64, ptr %26, align 8, !tbaa !185
  %172 = load i64, ptr %20, align 8, !tbaa !185
  %173 = load i32, ptr %22, align 4, !tbaa !190
  %174 = icmp ne i32 %173, 0
  br i1 %174, label %175, label %177

175:                                              ; preds = %161
  %176 = load ptr, ptr %17, align 8, !tbaa !4
  br label %178

177:                                              ; preds = %161
  br label %178

178:                                              ; preds = %177, %175
  %179 = phi ptr [ %176, %175 ], [ null, %177 ]
  %180 = load i64, ptr %29, align 8, !tbaa !185
  %181 = load ptr, ptr %18, align 8, !tbaa !210
  call void @InsertThousandsGrouping_fill(ptr noundef %169, ptr noundef %23, ptr noundef %170, ptr noundef %24, i64 noundef %171, i64 noundef %172, ptr noundef %179, i64 noundef %180, ptr noundef %181)
  store i32 1, ptr %22, align 4, !tbaa !190
  %182 = load i64, ptr %26, align 8, !tbaa !185
  %183 = load i64, ptr %27, align 8, !tbaa !185
  %184 = sub i64 %183, %182
  store i64 %184, ptr %27, align 8, !tbaa !185
  %185 = load i64, ptr %25, align 8, !tbaa !185
  %186 = load i64, ptr %15, align 8, !tbaa !185
  %187 = sub i64 %186, %185
  store i64 %187, ptr %15, align 8, !tbaa !185
  %188 = load i64, ptr %27, align 8, !tbaa !185
  %189 = icmp sle i64 %188, 0
  br i1 %189, label %190, label %194

190:                                              ; preds = %178
  %191 = load i64, ptr %15, align 8, !tbaa !185
  %192 = icmp sle i64 %191, 0
  br i1 %192, label %193, label %194

193:                                              ; preds = %190
  store i32 1, ptr %21, align 4, !tbaa !190
  br label %198

194:                                              ; preds = %190, %178
  %195 = load i64, ptr %29, align 8, !tbaa !185
  %196 = load i64, ptr %15, align 8, !tbaa !185
  %197 = sub i64 %196, %195
  store i64 %197, ptr %15, align 8, !tbaa !185
  br label %65, !llvm.loop !388

198:                                              ; preds = %193, %65
  %199 = load i32, ptr %21, align 4, !tbaa !190
  %200 = icmp ne i32 %199, 0
  br i1 %200, label %285, label %201

201:                                              ; preds = %198
  %202 = load i64, ptr %27, align 8, !tbaa !185
  %203 = load i64, ptr %15, align 8, !tbaa !185
  %204 = icmp sgt i64 %202, %203
  br i1 %204, label %205, label %207

205:                                              ; preds = %201
  %206 = load i64, ptr %27, align 8, !tbaa !185
  br label %209

207:                                              ; preds = %201
  %208 = load i64, ptr %15, align 8, !tbaa !185
  br label %209

209:                                              ; preds = %207, %205
  %210 = phi i64 [ %206, %205 ], [ %208, %207 ]
  %211 = icmp sgt i64 %210, 1
  br i1 %211, label %212, label %222

212:                                              ; preds = %209
  %213 = load i64, ptr %27, align 8, !tbaa !185
  %214 = load i64, ptr %15, align 8, !tbaa !185
  %215 = icmp sgt i64 %213, %214
  br i1 %215, label %216, label %218

216:                                              ; preds = %212
  %217 = load i64, ptr %27, align 8, !tbaa !185
  br label %220

218:                                              ; preds = %212
  %219 = load i64, ptr %15, align 8, !tbaa !185
  br label %220

220:                                              ; preds = %218, %216
  %221 = phi i64 [ %217, %216 ], [ %219, %218 ]
  br label %223

222:                                              ; preds = %209
  br label %223

223:                                              ; preds = %222, %220
  %224 = phi i64 [ %221, %220 ], [ 1, %222 ]
  store i64 %224, ptr %25, align 8, !tbaa !185
  %225 = load i64, ptr %25, align 8, !tbaa !185
  %226 = load i64, ptr %27, align 8, !tbaa !185
  %227 = sub i64 %225, %226
  %228 = icmp sgt i64 0, %227
  br i1 %228, label %229, label %230

229:                                              ; preds = %223
  br label %234

230:                                              ; preds = %223
  %231 = load i64, ptr %25, align 8, !tbaa !185
  %232 = load i64, ptr %27, align 8, !tbaa !185
  %233 = sub i64 %231, %232
  br label %234

234:                                              ; preds = %230, %229
  %235 = phi i64 [ 0, %229 ], [ %233, %230 ]
  store i64 %235, ptr %20, align 8, !tbaa !185
  %236 = load i64, ptr %27, align 8, !tbaa !185
  %237 = load i64, ptr %25, align 8, !tbaa !185
  %238 = icmp sgt i64 %236, %237
  br i1 %238, label %239, label %241

239:                                              ; preds = %234
  %240 = load i64, ptr %25, align 8, !tbaa !185
  br label %243

241:                                              ; preds = %234
  %242 = load i64, ptr %27, align 8, !tbaa !185
  br label %243

243:                                              ; preds = %241, %239
  %244 = phi i64 [ %240, %239 ], [ %242, %241 ]
  %245 = icmp sgt i64 0, %244
  br i1 %245, label %246, label %247

246:                                              ; preds = %243
  br label %257

247:                                              ; preds = %243
  %248 = load i64, ptr %27, align 8, !tbaa !185
  %249 = load i64, ptr %25, align 8, !tbaa !185
  %250 = icmp sgt i64 %248, %249
  br i1 %250, label %251, label %253

251:                                              ; preds = %247
  %252 = load i64, ptr %25, align 8, !tbaa !185
  br label %255

253:                                              ; preds = %247
  %254 = load i64, ptr %27, align 8, !tbaa !185
  br label %255

255:                                              ; preds = %253, %251
  %256 = phi i64 [ %252, %251 ], [ %254, %253 ]
  br label %257

257:                                              ; preds = %255, %246
  %258 = phi i64 [ 0, %246 ], [ %256, %255 ]
  store i64 %258, ptr %26, align 8, !tbaa !185
  %259 = load i32, ptr %22, align 4, !tbaa !190
  %260 = icmp ne i32 %259, 0
  br i1 %260, label %261, label %263

261:                                              ; preds = %257
  %262 = load i64, ptr %29, align 8, !tbaa !185
  br label %264

263:                                              ; preds = %257
  br label %264

264:                                              ; preds = %263, %261
  %265 = phi i64 [ %262, %261 ], [ 0, %263 ]
  %266 = load i64, ptr %20, align 8, !tbaa !185
  %267 = add i64 %265, %266
  %268 = load i64, ptr %26, align 8, !tbaa !185
  %269 = add i64 %267, %268
  %270 = load i64, ptr %19, align 8, !tbaa !185
  %271 = add i64 %270, %269
  store i64 %271, ptr %19, align 8, !tbaa !185
  %272 = load ptr, ptr %10, align 8, !tbaa !180
  %273 = load ptr, ptr %12, align 8, !tbaa !4
  %274 = load i64, ptr %26, align 8, !tbaa !185
  %275 = load i64, ptr %20, align 8, !tbaa !185
  %276 = load i32, ptr %22, align 4, !tbaa !190
  %277 = icmp ne i32 %276, 0
  br i1 %277, label %278, label %280

278:                                              ; preds = %264
  %279 = load ptr, ptr %17, align 8, !tbaa !4
  br label %281

280:                                              ; preds = %264
  br label %281

281:                                              ; preds = %280, %278
  %282 = phi ptr [ %279, %278 ], [ null, %280 ]
  %283 = load i64, ptr %29, align 8, !tbaa !185
  %284 = load ptr, ptr %18, align 8, !tbaa !210
  call void @InsertThousandsGrouping_fill(ptr noundef %272, ptr noundef %23, ptr noundef %273, ptr noundef %24, i64 noundef %274, i64 noundef %275, ptr noundef %282, i64 noundef %283, ptr noundef %284)
  br label %285

285:                                              ; preds = %281, %198
  %286 = load i64, ptr %19, align 8, !tbaa !185
  call void @llvm.lifetime.end.p0(i64 8, ptr %29) #12
  call void @llvm.lifetime.end.p0(i64 24, ptr %28) #12
  call void @llvm.lifetime.end.p0(i64 8, ptr %27) #12
  call void @llvm.lifetime.end.p0(i64 8, ptr %26) #12
  call void @llvm.lifetime.end.p0(i64 8, ptr %25) #12
  call void @llvm.lifetime.end.p0(i64 8, ptr %24) #12
  call void @llvm.lifetime.end.p0(i64 8, ptr %23) #12
  call void @llvm.lifetime.end.p0(i64 4, ptr %22) #12
  call void @llvm.lifetime.end.p0(i64 4, ptr %21) #12
  call void @llvm.lifetime.end.p0(i64 8, ptr %20) #12
  call void @llvm.lifetime.end.p0(i64 8, ptr %19) #12
  ret i64 %286
}