; Function Attrs: nofree norecurse nosync nounwind memory(readwrite, inaccessiblemem: write) uwtable
define hidden i64 @_PyUnicode_InsertThousandsGrouping(ptr noundef %0, i64 noundef %1, ptr noundef %2, i64 noundef %3, i64 noundef %4, i64 noundef %5, ptr noundef readonly captures(none) %6, ptr noundef %7, ptr noundef captures(none) %8) local_unnamed_addr #6 {
  %10 = alloca i64, align 8
  %11 = alloca i64, align 8
  %12 = tail call i64 @llvm.smax.i64(i64 %5, i64 0)
  call void @llvm.lifetime.start.p0(i64 8, ptr nonnull %10) #41
  call void @llvm.lifetime.start.p0(i64 8, ptr nonnull %11) #41
  %13 = getelementptr i8, ptr %7, i64 16
  %.val = load i64, ptr %13, align 8, !tbaa !197
  %14 = add i64 %4, %3
  store i64 %14, ptr %11, align 8, !tbaa !182
  %.not = icmp eq ptr %0, null
  br i1 %.not, label %.critedge, label %15

15:                                               ; preds = %9
  %16 = getelementptr inbounds nuw i8, ptr %0, i64 32
  %17 = load i64, ptr %16, align 8, !tbaa !225
  %18 = add i64 %17, %1
  br label %19

.critedge:                                        ; preds = %9
  store i32 127, ptr %8, align 4, !tbaa !200
  br label %19

19:                                               ; preds = %15, %.critedge
  %.sink = phi i64 [ %1, %.critedge ], [ %18, %15 ]
  store i64 %.sink, ptr %10, align 8, !tbaa !182
  br label %20

20:                                               ; preds = %26, %19
  %.sroa.4.0 = phi i8 [ 0, %19 ], [ %.sroa.4.1, %26 ]
  %.sroa.7121.0 = phi i64 [ 0, %19 ], [ %.sroa.7121.1, %26 ]
  %.0105 = phi i64 [ 0, %19 ], [ %37, %26 ]
  %.not116 = phi i1 [ true, %19 ], [ false, %26 ]
  %.0100 = phi i64 [ %4, %19 ], [ %39, %26 ]
  %.0 = phi i64 [ %12, %19 ], [ %43, %26 ]
  %21 = getelementptr i8, ptr %6, i64 %.sroa.7121.0
  %22 = load i8, ptr %21, align 1, !tbaa !195
  switch i8 %22, label %23 [
    i8 0, label %GroupGenerator_next.exit
    i8 127, label %GroupGenerator_next.exit.thread
  ]

23:                                               ; preds = %20
  %24 = add i64 %.sroa.7121.0, 1
  br label %GroupGenerator_next.exit

GroupGenerator_next.exit:                         ; preds = %20, %23
  %.sroa.4.1 = phi i8 [ %22, %23 ], [ %.sroa.4.0, %20 ]
  %.sroa.7121.1 = phi i64 [ %24, %23 ], [ %.sroa.7121.0, %20 ]
  %25 = icmp slt i8 %.sroa.4.1, 1
  br i1 %25, label %GroupGenerator_next.exit.thread, label %26

26:                                               ; preds = %GroupGenerator_next.exit
  %.0.i = zext nneg i8 %.sroa.4.1 to i64
  %27 = tail call i64 @llvm.smax.i64(i64 %.0100, i64 %.0)
  %spec.select = tail call i64 @llvm.smax.i64(i64 %27, i64 1)
  %28 = tail call i64 @llvm.umin.i64(i64 %spec.select, i64 %.0.i)
  %29 = sub i64 %28, %.0100
  %30 = tail call i64 @llvm.smax.i64(i64 %29, i64 0)
  %31 = icmp slt i64 %.0100, 0
  %32 = tail call i64 @llvm.smin.i64(i64 %.0100, i64 %28)
  %33 = select i1 %31, i64 0, i64 %32
  %34 = select i1 %.not116, i64 0, i64 %.val
  %35 = add i64 %34, %.0105
  %36 = add i64 %35, %30
  %37 = add i64 %36, %33
  %38 = select i1 %.not116, ptr null, ptr %7
  call fastcc void @InsertThousandsGrouping_fill(ptr noundef %0, ptr noundef %10, ptr noundef %2, ptr noundef %11, i64 noundef %33, i64 noundef %30, ptr noundef %38, i64 noundef %.val, ptr noundef %8)
  %39 = sub i64 %.0100, %33
  %40 = sub i64 %.0, %28
  %41 = icmp slt i64 %39, 1
  %42 = icmp slt i64 %40, 1
  %or.cond = select i1 %41, i1 %42, i1 false
  %43 = sub i64 %40, %.val
  br i1 %or.cond, label %.loopexit, label %20, !llvm.loop !364

GroupGenerator_next.exit.thread:                  ; preds = %20, %GroupGenerator_next.exit
  %44 = tail call i64 @llvm.smax.i64(i64 %.0100, i64 %.0)
  %spec.select120 = tail call i64 @llvm.smax.i64(i64 %44, i64 1)
  %45 = sub i64 %spec.select120, %.0100
  %46 = tail call i64 @llvm.smax.i64(i64 %45, i64 0)
  %47 = tail call i64 @llvm.smax.i64(i64 %.0100, i64 0)
  %48 = select i1 %.not116, i64 0, i64 %.val
  %49 = add i64 %48, %.0105
  %50 = add i64 %49, %46
  %51 = add i64 %50, %47
  %52 = select i1 %.not116, ptr null, ptr %7
  call fastcc void @InsertThousandsGrouping_fill(ptr noundef %0, ptr noundef %10, ptr noundef %2, ptr noundef %11, i64 noundef %47, i64 noundef %46, ptr noundef %52, i64 noundef %.val, ptr noundef %8)
  br label %.loopexit

.loopexit:                                        ; preds = %26, %GroupGenerator_next.exit.thread
  %.2 = phi i64 [ %51, %GroupGenerator_next.exit.thread ], [ %37, %26 ]
  call void @llvm.lifetime.end.p0(i64 8, ptr nonnull %11) #41
  call void @llvm.lifetime.end.p0(i64 8, ptr nonnull %10) #41
  ret i64 %.2
}